target datalayout = "e-m:e-p270:32:32-p271:32:32-p272:64:64-i64:64-f80:128-n8:16:32:64-S128"
target triple = "x86_64-pc-linux-gnu"

@.str = private unnamed_addr constant [3 x i8] c"%d\00", align 1
@.str.1 = private unnamed_addr constant [10 x i8] c"%lf%lf%lf\00", align 1
@.str.2 = private unnamed_addr constant [40 x i8] c"(%.0f,%.0f,%.0f)-(%.0f,%.0f,%.0f)=%.2f\0A\00", align 1

; Function Attrs: noinline nounwind uwtable
define dso_local void @main() #0 {
  %1 = alloca i32, align 4
  %2 = alloca i32, align 4
  %3 = alloca i32, align 4
  %4 = alloca i32, align 4
  %5 = alloca i32, align 4
  %6 = alloca [200 x i32], align 16
  %7 = alloca [200 x i32], align 16
  %8 = alloca [20 x double], align 16
  %9 = alloca [20 x double], align 16
  %10 = alloca [20 x double], align 16
  %11 = alloca [200 x double], align 16
  %12 = alloca double, align 8
  %13 = call i32 (i8*, ...) @__isoc99_scanf(i8* getelementptr inbounds ([3 x i8], [3 x i8]* @.str, i64 0, i64 0), i32* %1)
  store i32 0, i32* %2, align 4
  br label %14

14:                                               ; preds = %29, %0
  %15 = load i32, i32* %2, align 4
  %16 = load i32, i32* %1, align 4
  %17 = icmp slt i32 %15, %16
  br i1 %17, label %18, label %32

18:                                               ; preds = %14
  %19 = load i32, i32* %2, align 4
  %20 = sext i32 %19 to i64
  %21 = getelementptr inbounds [20 x double], [20 x double]* %8, i64 0, i64 %20
  %22 = load i32, i32* %2, align 4
  %23 = sext i32 %22 to i64
  %24 = getelementptr inbounds [20 x double], [20 x double]* %9, i64 0, i64 %23
  %25 = load i32, i32* %2, align 4
  %26 = sext i32 %25 to i64
  %27 = getelementptr inbounds [20 x double], [20 x double]* %10, i64 0, i64 %26
  %28 = call i32 (i8*, ...) @__isoc99_scanf(i8* getelementptr inbounds ([10 x i8], [10 x i8]* @.str.1, i64 0, i64 0), double* %21, double* %24, double* %27)
  br label %29

29:                                               ; preds = %18
  %30 = load i32, i32* %2, align 4
  %31 = add nsw i32 %30, 1
  store i32 %31, i32* %2, align 4
  br label %14

32:                                               ; preds = %14
  store i32 0, i32* %2, align 4
  store i32 0, i32* %4, align 4
  br label %33

33:                                               ; preds = %123, %32
  %34 = load i32, i32* %2, align 4
  %35 = load i32, i32* %1, align 4
  %36 = sub nsw i32 %35, 1
  %37 = icmp slt i32 %34, %36
  br i1 %37, label %38, label %126

38:                                               ; preds = %33
  %39 = load i32, i32* %2, align 4
  %40 = add nsw i32 %39, 1
  store i32 %40, i32* %3, align 4
  br label %41

41:                                               ; preds = %119, %38
  %42 = load i32, i32* %3, align 4
  %43 = load i32, i32* %1, align 4
  %44 = icmp slt i32 %42, %43
  br i1 %44, label %45, label %122

45:                                               ; preds = %41
  %46 = load i32, i32* %2, align 4
  %47 = sext i32 %46 to i64
  %48 = getelementptr inbounds [20 x double], [20 x double]* %8, i64 0, i64 %47
  %49 = load double, double* %48, align 8
  %50 = load i32, i32* %3, align 4
  %51 = sext i32 %50 to i64
  %52 = getelementptr inbounds [20 x double], [20 x double]* %8, i64 0, i64 %51
  %53 = load double, double* %52, align 8
  %54 = fsub double %49, %53
  %55 = load i32, i32* %2, align 4
  %56 = sext i32 %55 to i64
  %57 = getelementptr inbounds [20 x double], [20 x double]* %8, i64 0, i64 %56
  %58 = load double, double* %57, align 8
  %59 = load i32, i32* %3, align 4
  %60 = sext i32 %59 to i64
  %61 = getelementptr inbounds [20 x double], [20 x double]* %8, i64 0, i64 %60
  %62 = load double, double* %61, align 8
  %63 = fsub double %58, %62
  %64 = fmul double %54, %63
  %65 = load i32, i32* %2, align 4
  %66 = sext i32 %65 to i64
  %67 = getelementptr inbounds [20 x double], [20 x double]* %9, i64 0, i64 %66
  %68 = load double, double* %67, align 8
  %69 = load i32, i32* %3, align 4
  %70 = sext i32 %69 to i64
  %71 = getelementptr inbounds [20 x double], [20 x double]* %9, i64 0, i64 %70
  %72 = load double, double* %71, align 8
  %73 = fsub double %68, %72
  %74 = load i32, i32* %2, align 4
  %75 = sext i32 %74 to i64
  %76 = getelementptr inbounds [20 x double], [20 x double]* %9, i64 0, i64 %75
  %77 = load double, double* %76, align 8
  %78 = load i32, i32* %3, align 4
  %79 = sext i32 %78 to i64
  %80 = getelementptr inbounds [20 x double], [20 x double]* %9, i64 0, i64 %79
  %81 = load double, double* %80, align 8
  %82 = fsub double %77, %81
  %83 = fmul double %73, %82
  %84 = fadd double %64, %83
  %85 = load i32, i32* %2, align 4
  %86 = sext i32 %85 to i64
  %87 = getelementptr inbounds [20 x double], [20 x double]* %10, i64 0, i64 %86
  %88 = load double, double* %87, align 8
  %89 = load i32, i32* %3, align 4
  %90 = sext i32 %89 to i64
  %91 = getelementptr inbounds [20 x double], [20 x double]* %10, i64 0, i64 %90
  %92 = load double, double* %91, align 8
  %93 = fsub double %88, %92
  %94 = load i32, i32* %2, align 4
  %95 = sext i32 %94 to i64
  %96 = getelementptr inbounds [20 x double], [20 x double]* %10, i64 0, i64 %95
  %97 = load double, double* %96, align 8
  %98 = load i32, i32* %3, align 4
  %99 = sext i32 %98 to i64
  %100 = getelementptr inbounds [20 x double], [20 x double]* %10, i64 0, i64 %99
  %101 = load double, double* %100, align 8
  %102 = fsub double %97, %101
  %103 = fmul double %93, %102
  %104 = fadd double %84, %103
  %105 = call double @sqrt(double %104) #3
  %106 = load i32, i32* %4, align 4
  %107 = sext i32 %106 to i64
  %108 = getelementptr inbounds [200 x double], [200 x double]* %11, i64 0, i64 %107
  store double %105, double* %108, align 8
  %109 = load i32, i32* %2, align 4
  %110 = load i32, i32* %4, align 4
  %111 = sext i32 %110 to i64
  %112 = getelementptr inbounds [200 x i32], [200 x i32]* %6, i64 0, i64 %111
  store i32 %109, i32* %112, align 4
  %113 = load i32, i32* %3, align 4
  %114 = load i32, i32* %4, align 4
  %115 = sext i32 %114 to i64
  %116 = getelementptr inbounds [200 x i32], [200 x i32]* %7, i64 0, i64 %115
  store i32 %113, i32* %116, align 4
  %117 = load i32, i32* %4, align 4
  %118 = add nsw i32 %117, 1
  store i32 %118, i32* %4, align 4
  br label %119

119:                                              ; preds = %45
  %120 = load i32, i32* %3, align 4
  %121 = add nsw i32 %120, 1
  store i32 %121, i32* %3, align 4
  br label %41

122:                                              ; preds = %41
  br label %123

123:                                              ; preds = %122
  %124 = load i32, i32* %2, align 4
  %125 = add nsw i32 %124, 1
  store i32 %125, i32* %2, align 4
  br label %33

126:                                              ; preds = %33
  store i32 0, i32* %2, align 4
  br label %127

127:                                              ; preds = %215, %126
  %128 = load i32, i32* %2, align 4
  %129 = load i32, i32* %1, align 4
  %130 = load i32, i32* %1, align 4
  %131 = sub nsw i32 %130, 1
  %132 = mul nsw i32 %129, %131
  %133 = sdiv i32 %132, 2
  %134 = sub nsw i32 %133, 1
  %135 = icmp slt i32 %128, %134
  br i1 %135, label %136, label %218

136:                                              ; preds = %127
  %137 = load i32, i32* %1, align 4
  %138 = load i32, i32* %1, align 4
  %139 = sub nsw i32 %138, 1
  %140 = mul nsw i32 %137, %139
  %141 = sdiv i32 %140, 2
  %142 = sub nsw i32 %141, 1
  store i32 %142, i32* %3, align 4
  br label %143

143:                                              ; preds = %211, %136
  %144 = load i32, i32* %3, align 4
  %145 = load i32, i32* %2, align 4
  %146 = icmp sgt i32 %144, %145
  br i1 %146, label %147, label %214

147:                                              ; preds = %143
  %148 = load i32, i32* %3, align 4
  %149 = sub nsw i32 %148, 1
  %150 = sext i32 %149 to i64
  %151 = getelementptr inbounds [200 x double], [200 x double]* %11, i64 0, i64 %150
  %152 = load double, double* %151, align 8
  %153 = load i32, i32* %3, align 4
  %154 = sext i32 %153 to i64
  %155 = getelementptr inbounds [200 x double], [200 x double]* %11, i64 0, i64 %154
  %156 = load double, double* %155, align 8
  %157 = fcmp olt double %152, %156
  br i1 %157, label %158, label %210

158:                                              ; preds = %147
  %159 = load i32, i32* %3, align 4
  %160 = sub nsw i32 %159, 1
  %161 = sext i32 %160 to i64
  %162 = getelementptr inbounds [200 x double], [200 x double]* %11, i64 0, i64 %161
  %163 = load double, double* %162, align 8
  store double %163, double* %12, align 8
  %164 = load i32, i32* %3, align 4
  %165 = sext i32 %164 to i64
  %166 = getelementptr inbounds [200 x double], [200 x double]* %11, i64 0, i64 %165
  %167 = load double, double* %166, align 8
  %168 = load i32, i32* %3, align 4
  %169 = sub nsw i32 %168, 1
  %170 = sext i32 %169 to i64
  %171 = getelementptr inbounds [200 x double], [200 x double]* %11, i64 0, i64 %170
  store double %167, double* %171, align 8
  %172 = load double, double* %12, align 8
  %173 = load i32, i32* %3, align 4
  %174 = sext i32 %173 to i64
  %175 = getelementptr inbounds [200 x double], [200 x double]* %11, i64 0, i64 %174
  store double %172, double* %175, align 8
  %176 = load i32, i32* %3, align 4
  %177 = sub nsw i32 %176, 1
  %178 = sext i32 %177 to i64
  %179 = getelementptr inbounds [200 x i32], [200 x i32]* %6, i64 0, i64 %178
  %180 = load i32, i32* %179, align 4
  store i32 %180, i32* %5, align 4
  %181 = load i32, i32* %3, align 4
  %182 = sext i32 %181 to i64
  %183 = getelementptr inbounds [200 x i32], [200 x i32]* %6, i64 0, i64 %182
  %184 = load i32, i32* %183, align 4
  %185 = load i32, i32* %3, align 4
  %186 = sub nsw i32 %185, 1
  %187 = sext i32 %186 to i64
  %188 = getelementptr inbounds [200 x i32], [200 x i32]* %6, i64 0, i64 %187
  store i32 %184, i32* %188, align 4
  %189 = load i32, i32* %5, align 4
  %190 = load i32, i32* %3, align 4
  %191 = sext i32 %190 to i64
  %192 = getelementptr inbounds [200 x i32], [200 x i32]* %6, i64 0, i64 %191
  store i32 %189, i32* %192, align 4
  %193 = load i32, i32* %3, align 4
  %194 = sub nsw i32 %193, 1
  %195 = sext i32 %194 to i64
  %196 = getelementptr inbounds [200 x i32], [200 x i32]* %7, i64 0, i64 %195
  %197 = load i32, i32* %196, align 4
  store i32 %197, i32* %5, align 4
  %198 = load i32, i32* %3, align 4
  %199 = sext i32 %198 to i64
  %200 = getelementptr inbounds [200 x i32], [200 x i32]* %7, i64 0, i64 %199
  %201 = load i32, i32* %200, align 4
  %202 = load i32, i32* %3, align 4
  %203 = sub nsw i32 %202, 1
  %204 = sext i32 %203 to i64
  %205 = getelementptr inbounds [200 x i32], [200 x i32]* %7, i64 0, i64 %204
  store i32 %201, i32* %205, align 4
  %206 = load i32, i32* %5, align 4
  %207 = load i32, i32* %3, align 4
  %208 = sext i32 %207 to i64
  %209 = getelementptr inbounds [200 x i32], [200 x i32]* %7, i64 0, i64 %208
  store i32 %206, i32* %209, align 4
  br label %210

210:                                              ; preds = %158, %147
  br label %211

211:                                              ; preds = %210
  %212 = load i32, i32* %3, align 4
  %213 = add nsw i32 %212, -1
  store i32 %213, i32* %3, align 4
  br label %143

214:                                              ; preds = %143
  br label %215

215:                                              ; preds = %214
  %216 = load i32, i32* %2, align 4
  %217 = add nsw i32 %216, 1
  store i32 %217, i32* %2, align 4
  br label %127

218:                                              ; preds = %127
  store i32 0, i32* %2, align 4
  br label %219

219:                                              ; preds = %275, %218
  %220 = load i32, i32* %2, align 4
  %221 = load i32, i32* %1, align 4
  %222 = load i32, i32* %1, align 4
  %223 = sub nsw i32 %222, 1
  %224 = mul nsw i32 %221, %223
  %225 = sdiv i32 %224, 2
  %226 = icmp slt i32 %220, %225
  br i1 %226, label %227, label %278

227:                                              ; preds = %219
  %228 = load i32, i32* %2, align 4
  %229 = sext i32 %228 to i64
  %230 = getelementptr inbounds [200 x i32], [200 x i32]* %6, i64 0, i64 %229
  %231 = load i32, i32* %230, align 4
  %232 = sext i32 %231 to i64
  %233 = getelementptr inbounds [20 x double], [20 x double]* %8, i64 0, i64 %232
  %234 = load double, double* %233, align 8
  %235 = load i32, i32* %2, align 4
  %236 = sext i32 %235 to i64
  %237 = getelementptr inbounds [200 x i32], [200 x i32]* %6, i64 0, i64 %236
  %238 = load i32, i32* %237, align 4
  %239 = sext i32 %238 to i64
  %240 = getelementptr inbounds [20 x double], [20 x double]* %9, i64 0, i64 %239
  %241 = load double, double* %240, align 8
  %242 = load i32, i32* %2, align 4
  %243 = sext i32 %242 to i64
  %244 = getelementptr inbounds [200 x i32], [200 x i32]* %6, i64 0, i64 %243
  %245 = load i32, i32* %244, align 4
  %246 = sext i32 %245 to i64
  %247 = getelementptr inbounds [20 x double], [20 x double]* %10, i64 0, i64 %246
  %248 = load double, double* %247, align 8
  %249 = load i32, i32* %2, align 4
  %250 = sext i32 %249 to i64
  %251 = getelementptr inbounds [200 x i32], [200 x i32]* %7, i64 0, i64 %250
  %252 = load i32, i32* %251, align 4
  %253 = sext i32 %252 to i64
  %254 = getelementptr inbounds [20 x double], [20 x double]* %8, i64 0, i64 %253
  %255 = load double, double* %254, align 8
  %256 = load i32, i32* %2, align 4
  %257 = sext i32 %256 to i64
  %258 = getelementptr inbounds [200 x i32], [200 x i32]* %7, i64 0, i64 %257
  %259 = load i32, i32* %258, align 4
  %260 = sext i32 %259 to i64
  %261 = getelementptr inbounds [20 x double], [20 x double]* %9, i64 0, i64 %260
  %262 = load double, double* %261, align 8
  %263 = load i32, i32* %2, align 4
  %264 = sext i32 %263 to i64
  %265 = getelementptr inbounds [200 x i32], [200 x i32]* %7, i64 0, i64 %264
  %266 = load i32, i32* %265, align 4
  %267 = sext i32 %266 to i64
  %268 = getelementptr inbounds [20 x double], [20 x double]* %10, i64 0, i64 %267
  %269 = load double, double* %268, align 8
  %270 = load i32, i32* %2, align 4
  %271 = sext i32 %270 to i64
  %272 = getelementptr inbounds [200 x double], [200 x double]* %11, i64 0, i64 %271
  %273 = load double, double* %272, align 8
  %274 = call i32 (i8*, ...) @printf(i8* getelementptr inbounds ([40 x i8], [40 x i8]* @.str.2, i64 0, i64 0), double %234, double %241, double %248, double %255, double %262, double %269, double %273)
  br label %275

275:                                              ; preds = %227
  %276 = load i32, i32* %2, align 4
  %277 = add nsw i32 %276, 1
  store i32 %277, i32* %2, align 4
  br label %219

278:                                              ; preds = %219
  ret void
}